Certificate:
    Data:
        Version: 3 (0x2)
        Serial Number:
            87:fe:90:73:eb:4c:7e:a9:8f:2a:40:3f:85:f2:3f:71
    Signature Algorithm: sha256WithRSAEncryption
        Issuer: CN=rasvpn
        Validity
            Not Before: Dec 18 22:42:17 2020 GMT
            Not After : Mar 23 22:42:17 2023 GMT
        Subject: CN=client
        Subject Public Key Info:
            Public Key Algorithm: rsaEncryption
                Public-Key: (2048 bit)
                Modulus:
                    00:ad:dd:07:49:d7:6c:1f:46:6b:fa:d1:af:80:7d:
                    3c:ed:ff:a7:78:84:8a:91:6d:b4:d2:90:c8:14:56:
                    e9:ad:27:52:4c:22:18:bb:ee:29:fc:66:6d:89:7b:
                    27:47:58:c2:73:fb:24:64:75:bc:6f:32:b7:f3:4d:
                    6f:a1:68:d8:a0:19:ae:d5:99:23:bc:39:1a:07:2c:
                    bc:1c:61:9e:44:d0:c5:ff:a3:d5:03:69:03:60:1a:
                    12:4a:a2:1b:06:a2:db:54:58:b2:f0:23:8b:c4:09:
                    c7:52:de:d9:c8:ea:f3:cc:e9:28:43:f2:4e:4d:e5:
                    ec:b7:51:5e:4f:77:2a:51:84:cd:33:b8:26:4b:85:
                    94:e1:85:e8:bb:5b:f7:a1:1e:08:84:5d:31:da:5d:
                    a4:53:9e:00:de:e4:30:21:75:88:38:b5:ea:20:f2:
                    91:e8:94:87:de:15:65:04:ad:91:f2:32:11:44:14:
                    a9:18:ee:21:27:a5:db:44:5f:7a:1d:85:33:91:12:
                    cc:34:c8:30:b5:58:14:e9:06:7e:36:71:6d:68:b3:
                    51:ce:67:7a:9f:4e:d1:24:6e:c3:a4:23:7a:96:a9:
                    3e:a0:8f:66:50:1c:6c:d6:2f:b5:6a:91:96:9d:6c:
                    f0:70:7f:c1:b9:4b:b1:4e:db:5d:d9:a2:0b:9a:b5:
                    2e:25
                Exponent: 65537 (0x10001)
        X509v3 extensions:
            X509v3 Basic Constraints: 
                CA:FALSE
            X509v3 Subject Key Identifier: 
                B7:0B:3A:B6:D3:9F:3C:0C:AA:3F:2D:8A:4A:EE:42:EF:80:ED:BF:90
            X509v3 Authority Key Identifier: 
                keyid:18:FF:01:57:37:A1:C0:8A:83:58:AD:79:73:9F:BB:36:60:CC:A4:07
                DirName:/CN=rasvpn
                serial:8F:C9:2E:DA:88:99:9F:E7

            X509v3 Extended Key Usage: 
                TLS Web Client Authentication
            X509v3 Key Usage: 
                Digital Signature
    Signature Algorithm: sha256WithRSAEncryption
         16:f2:95:e2:98:8c:9f:a6:0c:1e:3c:68:cb:2e:e8:ca:8b:00:
         78:3a:7d:dd:61:14:f4:66:55:62:55:a6:4c:49:25:21:7c:7a:
         4b:2f:e6:be:17:04:3d:8c:d5:f9:b1:b5:d2:f8:63:b3:4e:6d:
         41:36:83:59:e8:99:3f:2c:6a:9c:ab:67:6a:bf:3f:68:f7:19:
         6b:09:61:7b:03:f8:dc:dd:25:43:b3:b2:15:54:35:c1:cf:1c:
         3a:41:b4:7b:e2:40:43:f9:85:82:33:82:35:10:d5:43:5b:28:
         a1:13:c3:1f:bb:01:ba:04:da:bf:4e:c5:ab:69:12:dc:c8:3c:
         67:0f:f4:7c:d8:14:3c:ab:ee:7d:5c:b8:c6:86:9c:ac:19:01:
         92:a5:dc:20:f2:5d:fc:40:de:4c:79:94:68:20:09:67:26:a3:
         7f:5c:1a:27:56:16:04:fc:2b:57:5e:cc:8b:df:a7:9c:74:8c:
         64:e0:95:75:c5:24:33:8d:2a:e8:af:cc:7d:dd:ab:91:29:4e:
         4a:e4:d8:89:be:1c:4b:1a:a0:69:f2:30:82:a7:51:7c:5f:83:
         d4:69:a2:b0:43:65:4d:17:fd:35:60:58:02:12:87:c4:ce:db:
         ed:a8:8e:c4:c4:8a:10:19:9f:9a:bf:99:23:de:de:53:bf:d4:
         9b:58:c2:c9
-----BEGIN CERTIFICATE-----
MIIDQDCCAiigAwIBAgIRAIf+kHPrTH6pjypAP4XyP3EwDQYJKoZIhvcNAQELBQAw
ETEPMA0GA1UEAwwGcmFzdnBuMB4XDTIwMTIxODIyNDIxN1oXDTIzMDMyMzIyNDIx
N1owETEPMA0GA1UEAwwGY2xpZW50MIIBIjANBgkqhkiG9w0BAQEFAAOCAQ8AMIIB
CgKCAQEArd0HSddsH0Zr+tGvgH087f+neISKkW200pDIFFbprSdSTCIYu+4p/GZt
iXsnR1jCc/skZHW8bzK3801voWjYoBmu1ZkjvDkaByy8HGGeRNDF/6PVA2kDYBoS
SqIbBqLbVFiy8COLxAnHUt7ZyOrzzOkoQ/JOTeXst1FeT3cqUYTNM7gmS4WU4YXo
u1v3oR4IhF0x2l2kU54A3uQwIXWIOLXqIPKR6JSH3hVlBK2R8jIRRBSpGO4hJ6Xb
RF96HYUzkRLMNMgwtVgU6QZ+NnFtaLNRzmd6n07RJG7DpCN6lqk+oI9mUBxs1i+1
apGWnWzwcH/BuUuxTttd2aILmrUuJQIDAQABo4GSMIGPMAkGA1UdEwQCMAAwHQYD
VR0OBBYEFLcLOrbTnzwMqj8tikruQu+A7b+QMEEGA1UdIwQ6MDiAFBj/AVc3ocCK
g1iteXOfuzZgzKQHoRWkEzARMQ8wDQYDVQQDDAZyYXN2cG6CCQCPyS7aiJmf5zAT
BgNVHSUEDDAKBggrBgEFBQcDAjALBgNVHQ8EBAMCB4AwDQYJKoZIhvcNAQELBQAD
ggEBABbyleKYjJ+mDB48aMsu6MqLAHg6fd1hFPRmVWJVpkxJJSF8eksv5r4XBD2M
1fmxtdL4Y7NObUE2g1nomT8sapyrZ2q/P2j3GWsJYXsD+NzdJUOzshVUNcHPHDpB
tHviQEP5hYIzgjUQ1UNbKKETwx+7AboE2r9OxatpEtzIPGcP9HzYFDyr7n1cuMaG
nKwZAZKl3CDyXfxA3kx5lGggCWcmo39cGidWFgT8K1dezIvfp5x0jGTglXXFJDON
KuivzH3dq5EpTkrk2Im+HEsaoGnyMIKnUXxfg9RporBDZU0X/TVgWAISh8TO2+2o
jsTEihAZn5q/mSPe3lO/1JtYwsk=
-----END CERTIFICATE-----
